target datalayout = "e-m:e-p270:32:32-p271:32:32-p272:64:64-i64:64-i128:128-f80:128-n8:16:32:64-S128"
target triple = "x86_64-pc-linux-gnu"

%struct._generic_N_Vector = type { ptr, ptr, ptr }
%struct._N_VectorContent_Serial = type { i64, i32, ptr }

; Function Attrs: nounwind uwtable
define internal i32 @fQS(i32 noundef %0, double noundef %1, ptr noundef %2, ptr noundef %3, ptr noundef %4, ptr noundef %5, ptr noundef %6, ptr noundef %7, ptr noundef %8) #0 {
  %10 = alloca i32, align 4
  %11 = alloca double, align 8
  %12 = alloca ptr, align 8
  %13 = alloca ptr, align 8
  %14 = alloca ptr, align 8
  %15 = alloca ptr, align 8
  %16 = alloca ptr, align 8
  %17 = alloca ptr, align 8
  %18 = alloca ptr, align 8
  %19 = alloca double, align 8
  %20 = alloca double, align 8
  %21 = alloca double, align 8
  %22 = alloca double, align 8
  %23 = alloca double, align 8
  %24 = alloca double, align 8
  store i32 %0, ptr %10, align 4, !tbaa !4
  store double %1, ptr %11, align 8, !tbaa !24
  store ptr %2, ptr %12, align 8, !tbaa !12
  store ptr %3, ptr %13, align 8, !tbaa !27
  store ptr %4, ptr %14, align 8, !tbaa !12
  store ptr %5, ptr %15, align 8, !tbaa !27
  store ptr %6, ptr %16, align 8, !tbaa !11
  store ptr %7, ptr %17, align 8, !tbaa !12
  store ptr %8, ptr %18, align 8, !tbaa !12
  call void @llvm.lifetime.start.p0(i64 8, ptr %19) #6
  call void @llvm.lifetime.start.p0(i64 8, ptr %20) #6
  call void @llvm.lifetime.start.p0(i64 8, ptr %21) #6
  call void @llvm.lifetime.start.p0(i64 8, ptr %22) #6
  call void @llvm.lifetime.start.p0(i64 8, ptr %23) #6
  call void @llvm.lifetime.start.p0(i64 8, ptr %24) #6
  %25 = load ptr, ptr %12, align 8, !tbaa !12
  %26 = getelementptr inbounds nuw %struct._generic_N_Vector, ptr %25, i32 0, i32 0
  %27 = load ptr, ptr %26, align 8, !tbaa !29
  %28 = getelementptr inbounds nuw %struct._N_VectorContent_Serial, ptr %27, i32 0, i32 2
  %29 = load ptr, ptr %28, align 8, !tbaa !32
  %30 = getelementptr inbounds double, ptr %29, i64 0
  %31 = load double, ptr %30, align 8, !tbaa !24
  store double %31, ptr %19, align 8, !tbaa !24
  %32 = load ptr, ptr %12, align 8, !tbaa !12
  %33 = getelementptr inbounds nuw %struct._generic_N_Vector, ptr %32, i32 0, i32 0
  %34 = load ptr, ptr %33, align 8, !tbaa !29
  %35 = getelementptr inbounds nuw %struct._N_VectorContent_Serial, ptr %34, i32 0, i32 2
  %36 = load ptr, ptr %35, align 8, !tbaa !32
  %37 = getelementptr inbounds double, ptr %36, i64 1
  %38 = load double, ptr %37, align 8, !tbaa !24
  store double %38, ptr %20, align 8, !tbaa !24
  %39 = load ptr, ptr %12, align 8, !tbaa !12
  %40 = getelementptr inbounds nuw %struct._generic_N_Vector, ptr %39, i32 0, i32 0
  %41 = load ptr, ptr %40, align 8, !tbaa !29
  %42 = getelementptr inbounds nuw %struct._N_VectorContent_Serial, ptr %41, i32 0, i32 2
  %43 = load ptr, ptr %42, align 8, !tbaa !32
  %44 = getelementptr inbounds double, ptr %43, i64 2
  %45 = load double, ptr %44, align 8, !tbaa !24
  store double %45, ptr %21, align 8, !tbaa !24
  %46 = load ptr, ptr %13, align 8, !tbaa !27
  %47 = getelementptr inbounds ptr, ptr %46, i64 0
  %48 = load ptr, ptr %47, align 8, !tbaa !12
  %49 = getelementptr inbounds nuw %struct._generic_N_Vector, ptr %48, i32 0, i32 0
  %50 = load ptr, ptr %49, align 8, !tbaa !29
  %51 = getelementptr inbounds nuw %struct._N_VectorContent_Serial, ptr %50, i32 0, i32 2
  %52 = load ptr, ptr %51, align 8, !tbaa !32
  %53 = getelementptr inbounds double, ptr %52, i64 0
  %54 = load double, ptr %53, align 8, !tbaa !24
  store double %54, ptr %22, align 8, !tbaa !24
  %55 = load ptr, ptr %13, align 8, !tbaa !27
  %56 = getelementptr inbounds ptr, ptr %55, i64 0
  %57 = load ptr, ptr %56, align 8, !tbaa !12
  %58 = getelementptr inbounds nuw %struct._generic_N_Vector, ptr %57, i32 0, i32 0
  %59 = load ptr, ptr %58, align 8, !tbaa !29
  %60 = getelementptr inbounds nuw %struct._N_VectorContent_Serial, ptr %59, i32 0, i32 2
  %61 = load ptr, ptr %60, align 8, !tbaa !32
  %62 = getelementptr inbounds double, ptr %61, i64 1
  %63 = load double, ptr %62, align 8, !tbaa !24
  store double %63, ptr %23, align 8, !tbaa !24
  %64 = load ptr, ptr %13, align 8, !tbaa !27
  %65 = getelementptr inbounds ptr, ptr %64, i64 0
  %66 = load ptr, ptr %65, align 8, !tbaa !12
  %67 = getelementptr inbounds nuw %struct._generic_N_Vector, ptr %66, i32 0, i32 0
  %68 = load ptr, ptr %67, align 8, !tbaa !29
  %69 = getelementptr inbounds nuw %struct._N_VectorContent_Serial, ptr %68, i32 0, i32 2
  %70 = load ptr, ptr %69, align 8, !tbaa !32
  %71 = getelementptr inbounds double, ptr %70, i64 2
  %72 = load double, ptr %71, align 8, !tbaa !24
  store double %72, ptr %24, align 8, !tbaa !24
  %73 = load double, ptr %19, align 8, !tbaa !24
  %74 = load double, ptr %22, align 8, !tbaa !24
  %75 = load double, ptr %20, align 8, !tbaa !24
  %76 = load double, ptr %23, align 8, !tbaa !24
  %77 = fmul double %75, %76
  %78 = call double @llvm.fmuladd.f64(double %73, double %74, double %77)
  %79 = load double, ptr %21, align 8, !tbaa !24
  %80 = load double, ptr %24, align 8, !tbaa !24
  %81 = call double @llvm.fmuladd.f64(double %79, double %80, double %78)
  %82 = load ptr, ptr %15, align 8, !tbaa !27
  %83 = getelementptr inbounds ptr, ptr %82, i64 0
  %84 = load ptr, ptr %83, align 8, !tbaa !12
  %85 = getelementptr inbounds nuw %struct._generic_N_Vector, ptr %84, i32 0, i32 0
  %86 = load ptr, ptr %85, align 8, !tbaa !29
  %87 = getelementptr inbounds nuw %struct._N_VectorContent_Serial, ptr %86, i32 0, i32 2
  %88 = load ptr, ptr %87, align 8, !tbaa !32
  %89 = getelementptr inbounds double, ptr %88, i64 0
  store double %81, ptr %89, align 8, !tbaa !24
  %90 = load ptr, ptr %13, align 8, !tbaa !27
  %91 = getelementptr inbounds ptr, ptr %90, i64 1
  %92 = load ptr, ptr %91, align 8, !tbaa !12
  %93 = getelementptr inbounds nuw %struct._generic_N_Vector, ptr %92, i32 0, i32 0
  %94 = load ptr, ptr %93, align 8, !tbaa !29
  %95 = getelementptr inbounds nuw %struct._N_VectorContent_Serial, ptr %94, i32 0, i32 2
  %96 = load ptr, ptr %95, align 8, !tbaa !32
  %97 = getelementptr inbounds double, ptr %96, i64 0
  %98 = load double, ptr %97, align 8, !tbaa !24
  store double %98, ptr %22, align 8, !tbaa !24
  %99 = load ptr, ptr %13, align 8, !tbaa !27
  %100 = getelementptr inbounds ptr, ptr %99, i64 1
  %101 = load ptr, ptr %100, align 8, !tbaa !12
  %102 = getelementptr inbounds nuw %struct._generic_N_Vector, ptr %101, i32 0, i32 0
  %103 = load ptr, ptr %102, align 8, !tbaa !29
  %104 = getelementptr inbounds nuw %struct._N_VectorContent_Serial, ptr %103, i32 0, i32 2
  %105 = load ptr, ptr %104, align 8, !tbaa !32
  %106 = getelementptr inbounds double, ptr %105, i64 1
  %107 = load double, ptr %106, align 8, !tbaa !24
  store double %107, ptr %23, align 8, !tbaa !24
  %108 = load ptr, ptr %13, align 8, !tbaa !27
  %109 = getelementptr inbounds ptr, ptr %108, i64 1
  %110 = load ptr, ptr %109, align 8, !tbaa !12
  %111 = getelementptr inbounds nuw %struct._generic_N_Vector, ptr %110, i32 0, i32 0
  %112 = load ptr, ptr %111, align 8, !tbaa !29
  %113 = getelementptr inbounds nuw %struct._N_VectorContent_Serial, ptr %112, i32 0, i32 2
  %114 = load ptr, ptr %113, align 8, !tbaa !32
  %115 = getelementptr inbounds double, ptr %114, i64 2
  %116 = load double, ptr %115, align 8, !tbaa !24
  store double %116, ptr %24, align 8, !tbaa !24
  %117 = load double, ptr %19, align 8, !tbaa !24
  %118 = load double, ptr %22, align 8, !tbaa !24
  %119 = load double, ptr %20, align 8, !tbaa !24
  %120 = load double, ptr %23, align 8, !tbaa !24
  %121 = fmul double %119, %120
  %122 = call double @llvm.fmuladd.f64(double %117, double %118, double %121)
  %123 = load double, ptr %21, align 8, !tbaa !24
  %124 = load double, ptr %24, align 8, !tbaa !24
  %125 = call double @llvm.fmuladd.f64(double %123, double %124, double %122)
  %126 = load ptr, ptr %15, align 8, !tbaa !27
  %127 = getelementptr inbounds ptr, ptr %126, i64 1
  %128 = load ptr, ptr %127, align 8, !tbaa !12
  %129 = getelementptr inbounds nuw %struct._generic_N_Vector, ptr %128, i32 0, i32 0
  %130 = load ptr, ptr %129, align 8, !tbaa !29
  %131 = getelementptr inbounds nuw %struct._N_VectorContent_Serial, ptr %130, i32 0, i32 2
  %132 = load ptr, ptr %131, align 8, !tbaa !32
  %133 = getelementptr inbounds double, ptr %132, i64 0
  store double %125, ptr %133, align 8, !tbaa !24
  call void @llvm.lifetime.end.p0(i64 8, ptr %24) #6
  call void @llvm.lifetime.end.p0(i64 8, ptr %23) #6
  call void @llvm.lifetime.end.p0(i64 8, ptr %22) #6
  call void @llvm.lifetime.end.p0(i64 8, ptr %21) #6
  call void @llvm.lifetime.end.p0(i64 8, ptr %20) #6
  call void @llvm.lifetime.end.p0(i64 8, ptr %19) #6
  ret i32 0
}