; Function Attrs: mustprogress nofree norecurse nosync nounwind willreturn memory(readwrite, inaccessiblemem: none) uwtable
define internal noundef i32 @fQS(i32 %0, double %1, ptr noundef readonly captures(none) %2, ptr noundef readonly captures(none) %3, ptr readnone captures(none) %4, ptr noundef readonly captures(none) %5, ptr readnone captures(none) %6, ptr readnone captures(none) %7, ptr readnone captures(none) %8) #4 {
  %10 = load ptr, ptr %2, align 8, !tbaa !18
  %11 = getelementptr inbounds nuw i8, ptr %10, i64 16
  %12 = load ptr, ptr %11, align 8, !tbaa !21
  %13 = load double, ptr %12, align 8, !tbaa !26
  %14 = getelementptr inbounds nuw i8, ptr %12, i64 8
  %15 = load double, ptr %14, align 8, !tbaa !26
  %16 = getelementptr inbounds nuw i8, ptr %12, i64 16
  %17 = load double, ptr %16, align 8, !tbaa !26
  %18 = load ptr, ptr %3, align 8, !tbaa !16
  %19 = load ptr, ptr %18, align 8, !tbaa !18
  %20 = getelementptr inbounds nuw i8, ptr %19, i64 16
  %21 = load ptr, ptr %20, align 8, !tbaa !21
  %22 = load double, ptr %21, align 8, !tbaa !26
  %23 = getelementptr inbounds nuw i8, ptr %21, i64 8
  %24 = load double, ptr %23, align 8, !tbaa !26
  %25 = getelementptr inbounds nuw i8, ptr %21, i64 16
  %26 = load double, ptr %25, align 8, !tbaa !26
  %27 = fmul double %15, %24
  %28 = tail call double @llvm.fmuladd.f64(double %13, double %22, double %27)
  %29 = tail call double @llvm.fmuladd.f64(double %17, double %26, double %28)
  %30 = load ptr, ptr %5, align 8, !tbaa !16
  %31 = load ptr, ptr %30, align 8, !tbaa !18
  %32 = getelementptr inbounds nuw i8, ptr %31, i64 16
  %33 = load ptr, ptr %32, align 8, !tbaa !21
  store double %29, ptr %33, align 8, !tbaa !26
  %34 = getelementptr inbounds nuw i8, ptr %3, i64 8
  %35 = load ptr, ptr %34, align 8, !tbaa !16
  %36 = load ptr, ptr %35, align 8, !tbaa !18
  %37 = getelementptr inbounds nuw i8, ptr %36, i64 16
  %38 = load ptr, ptr %37, align 8, !tbaa !21
  %39 = load double, ptr %38, align 8, !tbaa !26
  %40 = getelementptr inbounds nuw i8, ptr %38, i64 8
  %41 = load double, ptr %40, align 8, !tbaa !26
  %42 = getelementptr inbounds nuw i8, ptr %38, i64 16
  %43 = load double, ptr %42, align 8, !tbaa !26
  %44 = fmul double %15, %41
  %45 = tail call double @llvm.fmuladd.f64(double %13, double %39, double %44)
  %46 = tail call double @llvm.fmuladd.f64(double %17, double %43, double %45)
  %47 = getelementptr inbounds nuw i8, ptr %5, i64 8
  %48 = load ptr, ptr %47, align 8, !tbaa !16
  %49 = load ptr, ptr %48, align 8, !tbaa !18
  %50 = getelementptr inbounds nuw i8, ptr %49, i64 16
  %51 = load ptr, ptr %50, align 8, !tbaa !21
  store double %46, ptr %51, align 8, !tbaa !26
  ret i32 0
}